target datalayout = "e-m:e-p270:32:32-p271:32:32-p272:64:64-i64:64-i128:128-f80:128-n8:16:32:64-S128"
target triple = "x86_64-pc-linux-gnu"

%struct.gmx_structurefactors = type { i32, ptr, ptr, ptr, ptr, ptr, ptr }

; Function Attrs: mustprogress nounwind uwtable
define noundef i32 @_Z27gmx_structurefactors_get_sfP20gmx_structurefactorsiPfS1_S1_(ptr noundef %0, i32 noundef %1, ptr noundef %2, ptr noundef %3, ptr noundef %4) #2 {
  %6 = alloca ptr, align 8
  %7 = alloca i32, align 4
  %8 = alloca ptr, align 8
  %9 = alloca ptr, align 8
  %10 = alloca ptr, align 8
  %11 = alloca i32, align 4
  %12 = alloca i32, align 4
  %13 = alloca ptr, align 8
  store ptr %0, ptr %6, align 8
  store i32 %1, ptr %7, align 4
  store ptr %2, ptr %8, align 8
  store ptr %3, ptr %9, align 8
  store ptr %4, ptr %10, align 8
  %14 = load ptr, ptr %6, align 8
  store ptr %14, ptr %13, align 8
  store i32 0, ptr %11, align 4
  store i32 0, ptr %12, align 4
  br label %15

15:                                               ; preds = %57, %5
  %16 = load i32, ptr %12, align 4
  %17 = icmp slt i32 %16, 4
  br i1 %17, label %18, label %60

18:                                               ; preds = %15
  %19 = load ptr, ptr %13, align 8
  %20 = getelementptr inbounds %struct.gmx_structurefactors, ptr %19, i32 0, i32 3
  %21 = load ptr, ptr %20, align 8
  %22 = load i32, ptr %7, align 4
  %23 = sext i32 %22 to i64
  %24 = getelementptr inbounds ptr, ptr %21, i64 %23
  %25 = load ptr, ptr %24, align 8
  %26 = load i32, ptr %12, align 4
  %27 = sext i32 %26 to i64
  %28 = getelementptr inbounds float, ptr %25, i64 %27
  %29 = load float, ptr %28, align 4
  %30 = load ptr, ptr %8, align 8
  %31 = load i32, ptr %12, align 4
  %32 = sext i32 %31 to i64
  %33 = getelementptr inbounds float, ptr %30, i64 %32
  store float %29, ptr %33, align 4
  %34 = load ptr, ptr %13, align 8
  %35 = getelementptr inbounds %struct.gmx_structurefactors, ptr %34, i32 0, i32 4
  %36 = load ptr, ptr %35, align 8
  %37 = load i32, ptr %7, align 4
  %38 = sext i32 %37 to i64
  %39 = getelementptr inbounds ptr, ptr %36, i64 %38
  %40 = load ptr, ptr %39, align 8
  %41 = load i32, ptr %12, align 4
  %42 = sext i32 %41 to i64
  %43 = getelementptr inbounds float, ptr %40, i64 %42
  %44 = load float, ptr %43, align 4
  %45 = load ptr, ptr %9, align 8
  %46 = load i32, ptr %12, align 4
  %47 = sext i32 %46 to i64
  %48 = getelementptr inbounds float, ptr %45, i64 %47
  store float %44, ptr %48, align 4
  %49 = load ptr, ptr %13, align 8
  %50 = getelementptr inbounds %struct.gmx_structurefactors, ptr %49, i32 0, i32 5
  %51 = load ptr, ptr %50, align 8
  %52 = load i32, ptr %7, align 4
  %53 = sext i32 %52 to i64
  %54 = getelementptr inbounds float, ptr %51, i64 %53
  %55 = load float, ptr %54, align 4
  %56 = load ptr, ptr %10, align 8
  store float %55, ptr %56, align 4
  br label %57

57:                                               ; preds = %18
  %58 = load i32, ptr %12, align 4
  %59 = add nsw i32 %58, 1
  store i32 %59, ptr %12, align 4
  br label %15, !llvm.loop !24

60:                                               ; preds = %15
  %61 = load i32, ptr %11, align 4
  %62 = add nsw i32 %61, 1
  store i32 %62, ptr %11, align 4
  %63 = load i32, ptr %11, align 4
  ret i32 %63
}