; Function Attrs: mustprogress nofree norecurse nosync nounwind memory(read, argmem: readwrite, inaccessiblemem: none) uwtable
define noundef i32 @_Z27gmx_structurefactors_get_sfP20gmx_structurefactorsiPfS1_S1_(ptr nocapture noundef readonly %0, i32 noundef %1, ptr nocapture noundef writeonly %2, ptr nocapture noundef writeonly %3, ptr nocapture noundef writeonly %4) local_unnamed_addr #10 {
  %6 = getelementptr inbounds i8, ptr %0, i64 24
  %7 = sext i32 %1 to i64
  %8 = getelementptr inbounds i8, ptr %0, i64 32
  %9 = getelementptr inbounds i8, ptr %0, i64 40
  br label %10

10:                                               ; preds = %5, %10
  %indvars.iv = phi i64 [ 0, %5 ], [ %indvars.iv.next, %10 ]
  %11 = load ptr, ptr %6, align 8
  %12 = getelementptr inbounds ptr, ptr %11, i64 %7
  %13 = load ptr, ptr %12, align 8
  %14 = getelementptr inbounds float, ptr %13, i64 %indvars.iv
  %15 = load float, ptr %14, align 4
  %16 = getelementptr inbounds float, ptr %2, i64 %indvars.iv
  store float %15, ptr %16, align 4
  %17 = load ptr, ptr %8, align 8
  %18 = getelementptr inbounds ptr, ptr %17, i64 %7
  %19 = load ptr, ptr %18, align 8
  %20 = getelementptr inbounds float, ptr %19, i64 %indvars.iv
  %21 = load float, ptr %20, align 4
  %22 = getelementptr inbounds float, ptr %3, i64 %indvars.iv
  store float %21, ptr %22, align 4
  %23 = load ptr, ptr %9, align 8
  %24 = getelementptr inbounds float, ptr %23, i64 %7
  %25 = load float, ptr %24, align 4
  store float %25, ptr %4, align 4
  %indvars.iv.next = add nuw nsw i64 %indvars.iv, 1
  %exitcond.not = icmp eq i64 %indvars.iv.next, 4
  br i1 %exitcond.not, label %26, label %10, !llvm.loop !24

26:                                               ; preds = %10
  ret i32 1
}